target datalayout = "e-m:e-p270:32:32-p271:32:32-p272:64:64-i64:64-i128:128-f80:128-n8:16:32:64-S128"
target triple = "x86_64-unknown-linux-gnu"

%struct.rsa_meth_st = type { %struct.openssl_method_common_st, ptr, ptr, ptr, ptr, ptr, ptr, ptr, ptr, ptr, ptr, ptr, ptr, ptr, i32, ptr, ptr, ptr }
%struct.openssl_method_common_st = type { i32, i8 }
%struct.rsa_st = type { ptr, ptr, ptr, ptr, ptr, ptr, ptr, ptr, ptr, ptr, %struct.crypto_ex_data_st, i32, i32, %union.crypto_mutex_st, ptr, ptr, ptr, i32, ptr, ptr }
%struct.crypto_ex_data_st = type { ptr }
%union.crypto_mutex_st = type { double, [48 x i8] }

@.str = private unnamed_addr constant [120 x i8] c"generated/home/dtcxzyw/WorkSpace/Projects/compilers/llvm-opt-benchmark/bench/libquic/libquic/boringssl/crypto/rsa/rsa.c\00", align 1

; Function Attrs: nounwind uwtable
define hidden i32 @RSA_size(ptr noundef %rsa) #0 {
entry:
  %retval = alloca i32, align 4
  %rsa.addr = alloca ptr, align 8
  store ptr %rsa, ptr %rsa.addr, align 8
  %0 = load ptr, ptr %rsa.addr, align 8
  %meth = getelementptr inbounds %struct.rsa_st, ptr %0, i32 0, i32 0
  %1 = load ptr, ptr %meth, align 8
  %size = getelementptr inbounds %struct.rsa_meth_st, ptr %1, i32 0, i32 4
  %2 = load ptr, ptr %size, align 8
  %tobool = icmp ne ptr %2, null
  br i1 %tobool, label %if.then, label %if.end

if.then:                                          ; preds = %entry
  %3 = load ptr, ptr %rsa.addr, align 8
  %meth1 = getelementptr inbounds %struct.rsa_st, ptr %3, i32 0, i32 0
  %4 = load ptr, ptr %meth1, align 8
  %size2 = getelementptr inbounds %struct.rsa_meth_st, ptr %4, i32 0, i32 4
  %5 = load ptr, ptr %size2, align 8
  %6 = load ptr, ptr %rsa.addr, align 8
  %call = call i64 %5(ptr noundef %6)
  %conv = trunc i64 %call to i32
  store i32 %conv, ptr %retval, align 4
  br label %return

if.end:                                           ; preds = %entry
  %7 = load ptr, ptr %rsa.addr, align 8
  %call3 = call i64 @rsa_default_size(ptr noundef %7)
  %conv4 = trunc i64 %call3 to i32
  store i32 %conv4, ptr %retval, align 4
  br label %return

return:                                           ; preds = %if.end, %if.then
  %8 = load i32, ptr %retval, align 4
  ret i32 %8
}

; Function Attrs: nounwind uwtable
define hidden i32 @RSA_verify(i32 noundef %hash_nid, ptr noundef %msg, i64 noundef %msg_len, ptr noundef %sig, i64 noundef %sig_len, ptr noundef %rsa) #0 {
entry:
  %retval = alloca i32, align 4
  %hash_nid.addr = alloca i32, align 4
  %msg.addr = alloca ptr, align 8
  %msg_len.addr = alloca i64, align 8
  %sig.addr = alloca ptr, align 8
  %sig_len.addr = alloca i64, align 8
  %rsa.addr = alloca ptr, align 8
  %rsa_size = alloca i64, align 8
  %buf = alloca ptr, align 8
  %ret = alloca i32, align 4
  %signed_msg = alloca ptr, align 8
  %signed_msg_len = alloca i64, align 8
  %len = alloca i64, align 8
  %signed_msg_is_alloced = alloca i32, align 4
  store i32 %hash_nid, ptr %hash_nid.addr, align 4
  store ptr %msg, ptr %msg.addr, align 8
  store i64 %msg_len, ptr %msg_len.addr, align 8
  store ptr %sig, ptr %sig.addr, align 8
  store i64 %sig_len, ptr %sig_len.addr, align 8
  store ptr %rsa, ptr %rsa.addr, align 8
  %0 = load ptr, ptr %rsa.addr, align 8
  %n = getelementptr inbounds %struct.rsa_st, ptr %0, i32 0, i32 1
  %1 = load ptr, ptr %n, align 8
  %cmp = icmp eq ptr %1, null
  br i1 %cmp, label %if.then, label %lor.lhs.false

lor.lhs.false:                                    ; preds = %entry
  %2 = load ptr, ptr %rsa.addr, align 8
  %e = getelementptr inbounds %struct.rsa_st, ptr %2, i32 0, i32 2
  %3 = load ptr, ptr %e, align 8
  %cmp1 = icmp eq ptr %3, null
  br i1 %cmp1, label %if.then, label %if.end

if.then:                                          ; preds = %lor.lhs.false, %entry
  call void @ERR_put_error(i32 noundef 4, i32 noundef 0, i32 noundef 144, ptr noundef @.str, i32 noundef 467)
  store i32 0, ptr %retval, align 4
  br label %return

if.end:                                           ; preds = %lor.lhs.false
  %4 = load ptr, ptr %rsa.addr, align 8
  %call = call i32 @RSA_size(ptr noundef %4)
  %conv = zext i32 %call to i64
  store i64 %conv, ptr %rsa_size, align 8
  store ptr null, ptr %buf, align 8
  store i32 0, ptr %ret, align 4
  store ptr null, ptr %signed_msg, align 8
  store i32 0, ptr %signed_msg_is_alloced, align 4
  %5 = load i32, ptr %hash_nid.addr, align 4
  %cmp2 = icmp eq i32 %5, 114
  br i1 %cmp2, label %land.lhs.true, label %if.end7

land.lhs.true:                                    ; preds = %if.end
  %6 = load i64, ptr %msg_len.addr, align 8
  %cmp4 = icmp ne i64 %6, 36
  br i1 %cmp4, label %if.then6, label %if.end7

if.then6:                                         ; preds = %land.lhs.true
  call void @ERR_put_error(i32 noundef 4, i32 noundef 0, i32 noundef 125, ptr noundef @.str, i32 noundef 479)
  store i32 0, ptr %retval, align 4
  br label %return

if.end7:                                          ; preds = %land.lhs.true, %if.end
  %7 = load i64, ptr %rsa_size, align 8
  %call8 = call noalias ptr @malloc(i64 noundef %7) #7
  store ptr %call8, ptr %buf, align 8
  %8 = load ptr, ptr %buf, align 8
  %tobool = icmp ne ptr %8, null
  br i1 %tobool, label %if.end10, label %if.then9

if.then9:                                         ; preds = %if.end7
  call void @ERR_put_error(i32 noundef 4, i32 noundef 0, i32 noundef 65, ptr noundef @.str, i32 noundef 485)
  store i32 0, ptr %retval, align 4
  br label %return

if.end10:                                         ; preds = %if.end7
  %9 = load ptr, ptr %rsa.addr, align 8
  %10 = load ptr, ptr %buf, align 8
  %11 = load i64, ptr %rsa_size, align 8
  %12 = load ptr, ptr %sig.addr, align 8
  %13 = load i64, ptr %sig_len.addr, align 8
  %call11 = call i32 @RSA_verify_raw(ptr noundef %9, ptr noundef %len, ptr noundef %10, i64 noundef %11, ptr noundef %12, i64 noundef %13, i32 noundef 1)
  %tobool12 = icmp ne i32 %call11, 0
  br i1 %tobool12, label %if.end14, label %if.then13

if.then13:                                        ; preds = %if.end10
  br label %out

if.end14:                                         ; preds = %if.end10
  %14 = load i32, ptr %hash_nid.addr, align 4
  %15 = load ptr, ptr %msg.addr, align 8
  %16 = load i64, ptr %msg_len.addr, align 8
  %call15 = call i32 @RSA_add_pkcs1_prefix(ptr noundef %signed_msg, ptr noundef %signed_msg_len, ptr noundef %signed_msg_is_alloced, i32 noundef %14, ptr noundef %15, i64 noundef %16)
  %tobool16 = icmp ne i32 %call15, 0
  br i1 %tobool16, label %if.end18, label %if.then17

if.then17:                                        ; preds = %if.end14
  br label %out

if.end18:                                         ; preds = %if.end14
  %17 = load i64, ptr %len, align 8
  %18 = load i64, ptr %signed_msg_len, align 8
  %cmp19 = icmp ne i64 %17, %18
  br i1 %cmp19, label %if.then25, label %lor.lhs.false21

lor.lhs.false21:                                  ; preds = %if.end18
  %19 = load ptr, ptr %buf, align 8
  %20 = load ptr, ptr %signed_msg, align 8
  %21 = load i64, ptr %len, align 8
  %call22 = call i32 @memcmp(ptr noundef %19, ptr noundef %20, i64 noundef %21) #9
  %cmp23 = icmp ne i32 %call22, 0
  br i1 %cmp23, label %if.then25, label %if.end26

if.then25:                                        ; preds = %lor.lhs.false21, %if.end18
  call void @ERR_put_error(i32 noundef 4, i32 noundef 0, i32 noundef 105, ptr noundef @.str, i32 noundef 500)
  br label %out

if.end26:                                         ; preds = %lor.lhs.false21
  store i32 1, ptr %ret, align 4
  br label %out

out:                                              ; preds = %if.end26, %if.then25, %if.then17, %if.then13
  %22 = load ptr, ptr %buf, align 8
  call void @free(ptr noundef %22) #8
  %23 = load i32, ptr %signed_msg_is_alloced, align 4
  %tobool27 = icmp ne i32 %23, 0
  br i1 %tobool27, label %if.then28, label %if.end29

if.then28:                                        ; preds = %out
  %24 = load ptr, ptr %signed_msg, align 8
  call void @free(ptr noundef %24) #8
  br label %if.end29

if.end29:                                         ; preds = %if.then28, %out
  %25 = load i32, ptr %ret, align 4
  store i32 %25, ptr %retval, align 4
  br label %return

return:                                           ; preds = %if.end29, %if.then9, %if.then6, %if.then
  %26 = load i32, ptr %retval, align 4
  ret i32 %26
}