; Function Attrs: nounwind uwtable
define hidden range(i32 0, 2) i32 @RSA_verify(i32 noundef %hash_nid, ptr noundef %msg, i64 noundef %msg_len, ptr noundef %sig, i64 noundef %sig_len, ptr noundef %rsa) local_unnamed_addr #0 {
entry:
  %signed_msg = alloca ptr, align 8
  %signed_msg_len = alloca i64, align 8
  %len = alloca i64, align 8
  %signed_msg_is_alloced = alloca i32, align 4
  %n = getelementptr inbounds nuw i8, ptr %rsa, i64 8
  %0 = load ptr, ptr %n, align 8
  %cmp = icmp eq ptr %0, null
  br i1 %cmp, label %if.then, label %lor.lhs.false

lor.lhs.false:                                    ; preds = %entry
  %e = getelementptr inbounds nuw i8, ptr %rsa, i64 16
  %1 = load ptr, ptr %e, align 8
  %cmp1 = icmp eq ptr %1, null
  br i1 %cmp1, label %if.then, label %if.end

if.then:                                          ; preds = %lor.lhs.false, %entry
  tail call void @ERR_put_error(i32 noundef 4, i32 noundef 0, i32 noundef 144, ptr noundef nonnull @.str, i32 noundef 467) #9
  br label %return

if.end:                                           ; preds = %lor.lhs.false
  %2 = load ptr, ptr %rsa, align 8
  %size.i = getelementptr inbounds nuw i8, ptr %2, i64 32
  %3 = load ptr, ptr %size.i, align 8
  %tobool.not.i = icmp eq ptr %3, null
  br i1 %tobool.not.i, label %if.end.i, label %if.then.i

if.then.i:                                        ; preds = %if.end
  %call.i = tail call i64 %3(ptr noundef nonnull %rsa) #9
  br label %RSA_size.exit

if.end.i:                                         ; preds = %if.end
  %call3.i = tail call i64 @rsa_default_size(ptr noundef nonnull %rsa) #9
  br label %RSA_size.exit

RSA_size.exit:                                    ; preds = %if.then.i, %if.end.i
  %retval.0.in.i = phi i64 [ %call.i, %if.then.i ], [ %call3.i, %if.end.i ]
  %conv = and i64 %retval.0.in.i, 4294967295
  store ptr null, ptr %signed_msg, align 8
  store i32 0, ptr %signed_msg_is_alloced, align 4
  %cmp2 = icmp eq i32 %hash_nid, 114
  %cmp4 = icmp ne i64 %msg_len, 36
  %or.cond = and i1 %cmp2, %cmp4
  br i1 %or.cond, label %if.then6, label %if.end7

if.then6:                                         ; preds = %RSA_size.exit
  tail call void @ERR_put_error(i32 noundef 4, i32 noundef 0, i32 noundef 125, ptr noundef nonnull @.str, i32 noundef 479) #9
  br label %return

if.end7:                                          ; preds = %RSA_size.exit
  %call8 = tail call noalias ptr @malloc(i64 noundef %conv) #10
  %tobool.not = icmp eq ptr %call8, null
  br i1 %tobool.not, label %if.then9, label %if.end10

if.then9:                                         ; preds = %if.end7
  tail call void @ERR_put_error(i32 noundef 4, i32 noundef 0, i32 noundef 65, ptr noundef nonnull @.str, i32 noundef 485) #9
  br label %return

if.end10:                                         ; preds = %if.end7
  %call11 = call i32 @RSA_verify_raw(ptr noundef nonnull %rsa, ptr noundef nonnull %len, ptr noundef nonnull %call8, i64 noundef %conv, ptr noundef %sig, i64 noundef %sig_len, i32 noundef 1) #9
  %tobool12.not = icmp eq i32 %call11, 0
  br i1 %tobool12.not, label %out, label %if.end14

if.end14:                                         ; preds = %if.end10
  %call15 = call i32 @RSA_add_pkcs1_prefix(ptr noundef nonnull %signed_msg, ptr noundef nonnull %signed_msg_len, ptr noundef nonnull %signed_msg_is_alloced, i32 noundef %hash_nid, ptr noundef %msg, i64 noundef %msg_len)
  %tobool16.not = icmp eq i32 %call15, 0
  br i1 %tobool16.not, label %out, label %if.end18

if.end18:                                         ; preds = %if.end14
  %4 = load i64, ptr %len, align 8
  %5 = load i64, ptr %signed_msg_len, align 8
  %cmp19.not = icmp eq i64 %4, %5
  br i1 %cmp19.not, label %lor.lhs.false21, label %if.then25

lor.lhs.false21:                                  ; preds = %if.end18
  %6 = load ptr, ptr %signed_msg, align 8
  %bcmp = call i32 @bcmp(ptr nonnull %call8, ptr %6, i64 %4)
  %cmp23.not = icmp eq i32 %bcmp, 0
  br i1 %cmp23.not, label %out, label %if.then25

if.then25:                                        ; preds = %lor.lhs.false21, %if.end18
  call void @ERR_put_error(i32 noundef 4, i32 noundef 0, i32 noundef 105, ptr noundef nonnull @.str, i32 noundef 500) #9
  br label %out

out:                                              ; preds = %lor.lhs.false21, %if.end14, %if.end10, %if.then25
  %ret.0 = phi i32 [ 0, %if.then25 ], [ 0, %if.end14 ], [ 0, %if.end10 ], [ 1, %lor.lhs.false21 ]
  call void @free(ptr noundef nonnull %call8) #9
  %7 = load i32, ptr %signed_msg_is_alloced, align 4
  %tobool27.not = icmp eq i32 %7, 0
  br i1 %tobool27.not, label %return, label %if.then28

if.then28:                                        ; preds = %out
  %8 = load ptr, ptr %signed_msg, align 8
  call void @free(ptr noundef %8) #9
  br label %return

return:                                           ; preds = %out, %if.then28, %if.then9, %if.then6, %if.then
  %retval.0 = phi i32 [ 0, %if.then ], [ 0, %if.then6 ], [ 0, %if.then9 ], [ %ret.0, %if.then28 ], [ %ret.0, %out ]
  ret i32 %retval.0
}